
BilKode.elf:     file format elf32-avr

Sections:
Idx Name          Size      VMA       LMA       File off  Algn
  0 .data         00000002  00800200  000008d8  0000096c  2**0
                  CONTENTS, ALLOC, LOAD, DATA
  1 .text         000008d8  00000000  00000000  00000094  2**1
                  CONTENTS, ALLOC, LOAD, READONLY, CODE
  2 .bss          00000003  00800202  00800202  0000096e  2**0
                  ALLOC
  3 .comment      00000030  00000000  00000000  0000096e  2**0
                  CONTENTS, READONLY
  4 .note.gnu.avr.deviceinfo 00000040  00000000  00000000  000009a0  2**2
                  CONTENTS, READONLY
  5 .debug_aranges 00000178  00000000  00000000  000009e0  2**0
                  CONTENTS, READONLY, DEBUGGING
  6 .debug_info   00002252  00000000  00000000  00000b58  2**0
                  CONTENTS, READONLY, DEBUGGING
  7 .debug_abbrev 000011a9  00000000  00000000  00002daa  2**0
                  CONTENTS, READONLY, DEBUGGING
  8 .debug_line   00001032  00000000  00000000  00003f53  2**0
                  CONTENTS, READONLY, DEBUGGING
  9 .debug_frame  0000031c  00000000  00000000  00004f88  2**2
                  CONTENTS, READONLY, DEBUGGING
 10 .debug_str    00000711  00000000  00000000  000052a4  2**0
                  CONTENTS, READONLY, DEBUGGING
 11 .debug_loc    00000d06  00000000  00000000  000059b5  2**0
                  CONTENTS, READONLY, DEBUGGING
 12 .debug_ranges 00000108  00000000  00000000  000066bb  2**0
                  CONTENTS, READONLY, DEBUGGING

Disassembly of section .text:

00000000 <__vectors>:
   0:	71 c0       	rjmp	.+226    	; 0xe4 <__ctors_end>
   2:	00 00       	nop
   4:	34 c1       	rjmp	.+616    	; 0x26e <__vector_1>
   6:	00 00       	nop
   8:	0c c2       	rjmp	.+1048   	; 0x422 <__vector_2>
   a:	00 00       	nop
   c:	8a c0       	rjmp	.+276    	; 0x122 <__bad_interrupt>
   e:	00 00       	nop
  10:	88 c0       	rjmp	.+272    	; 0x122 <__bad_interrupt>
  12:	00 00       	nop
  14:	86 c0       	rjmp	.+268    	; 0x122 <__bad_interrupt>
  16:	00 00       	nop
  18:	84 c0       	rjmp	.+264    	; 0x122 <__bad_interrupt>
  1a:	00 00       	nop
  1c:	82 c0       	rjmp	.+260    	; 0x122 <__bad_interrupt>
  1e:	00 00       	nop
  20:	80 c0       	rjmp	.+256    	; 0x122 <__bad_interrupt>
  22:	00 00       	nop
  24:	7e c0       	rjmp	.+252    	; 0x122 <__bad_interrupt>
  26:	00 00       	nop
  28:	7c c0       	rjmp	.+248    	; 0x122 <__bad_interrupt>
  2a:	00 00       	nop
  2c:	7a c0       	rjmp	.+244    	; 0x122 <__bad_interrupt>
  2e:	00 00       	nop
  30:	78 c0       	rjmp	.+240    	; 0x122 <__bad_interrupt>
  32:	00 00       	nop
  34:	76 c0       	rjmp	.+236    	; 0x122 <__bad_interrupt>
  36:	00 00       	nop
  38:	74 c0       	rjmp	.+232    	; 0x122 <__bad_interrupt>
  3a:	00 00       	nop
  3c:	72 c0       	rjmp	.+228    	; 0x122 <__bad_interrupt>
  3e:	00 00       	nop
  40:	70 c0       	rjmp	.+224    	; 0x122 <__bad_interrupt>
  42:	00 00       	nop
  44:	6e c0       	rjmp	.+220    	; 0x122 <__bad_interrupt>
  46:	00 00       	nop
  48:	6c c0       	rjmp	.+216    	; 0x122 <__bad_interrupt>
  4a:	00 00       	nop
  4c:	6a c0       	rjmp	.+212    	; 0x122 <__bad_interrupt>
  4e:	00 00       	nop
  50:	68 c0       	rjmp	.+208    	; 0x122 <__bad_interrupt>
  52:	00 00       	nop
  54:	66 c0       	rjmp	.+204    	; 0x122 <__bad_interrupt>
  56:	00 00       	nop
  58:	64 c0       	rjmp	.+200    	; 0x122 <__bad_interrupt>
  5a:	00 00       	nop
  5c:	62 c0       	rjmp	.+196    	; 0x122 <__bad_interrupt>
  5e:	00 00       	nop
  60:	60 c0       	rjmp	.+192    	; 0x122 <__bad_interrupt>
  62:	00 00       	nop
  64:	5e c0       	rjmp	.+188    	; 0x122 <__bad_interrupt>
  66:	00 00       	nop
  68:	5c c0       	rjmp	.+184    	; 0x122 <__bad_interrupt>
  6a:	00 00       	nop
  6c:	5a c0       	rjmp	.+180    	; 0x122 <__bad_interrupt>
  6e:	00 00       	nop
  70:	58 c0       	rjmp	.+176    	; 0x122 <__bad_interrupt>
  72:	00 00       	nop
  74:	56 c0       	rjmp	.+172    	; 0x122 <__bad_interrupt>
  76:	00 00       	nop
  78:	54 c0       	rjmp	.+168    	; 0x122 <__bad_interrupt>
  7a:	00 00       	nop
  7c:	52 c0       	rjmp	.+164    	; 0x122 <__bad_interrupt>
  7e:	00 00       	nop
  80:	50 c0       	rjmp	.+160    	; 0x122 <__bad_interrupt>
  82:	00 00       	nop
  84:	4e c0       	rjmp	.+156    	; 0x122 <__bad_interrupt>
  86:	00 00       	nop
  88:	4c c0       	rjmp	.+152    	; 0x122 <__bad_interrupt>
  8a:	00 00       	nop
  8c:	4a c0       	rjmp	.+148    	; 0x122 <__bad_interrupt>
  8e:	00 00       	nop
  90:	48 c0       	rjmp	.+144    	; 0x122 <__bad_interrupt>
  92:	00 00       	nop
  94:	46 c0       	rjmp	.+140    	; 0x122 <__bad_interrupt>
  96:	00 00       	nop
  98:	44 c0       	rjmp	.+136    	; 0x122 <__bad_interrupt>
  9a:	00 00       	nop
  9c:	42 c0       	rjmp	.+132    	; 0x122 <__bad_interrupt>
  9e:	00 00       	nop
  a0:	40 c0       	rjmp	.+128    	; 0x122 <__bad_interrupt>
  a2:	00 00       	nop
  a4:	3e c0       	rjmp	.+124    	; 0x122 <__bad_interrupt>
  a6:	00 00       	nop
  a8:	3c c0       	rjmp	.+120    	; 0x122 <__bad_interrupt>
  aa:	00 00       	nop
  ac:	3a c0       	rjmp	.+116    	; 0x122 <__bad_interrupt>
  ae:	00 00       	nop
  b0:	38 c0       	rjmp	.+112    	; 0x122 <__bad_interrupt>
  b2:	00 00       	nop
  b4:	36 c0       	rjmp	.+108    	; 0x122 <__bad_interrupt>
  b6:	00 00       	nop
  b8:	34 c0       	rjmp	.+104    	; 0x122 <__bad_interrupt>
  ba:	00 00       	nop
  bc:	32 c0       	rjmp	.+100    	; 0x122 <__bad_interrupt>
  be:	00 00       	nop
  c0:	30 c0       	rjmp	.+96     	; 0x122 <__bad_interrupt>
  c2:	00 00       	nop
  c4:	2e c0       	rjmp	.+92     	; 0x122 <__bad_interrupt>
  c6:	00 00       	nop
  c8:	2c c0       	rjmp	.+88     	; 0x122 <__bad_interrupt>
  ca:	00 00       	nop
  cc:	2a c0       	rjmp	.+84     	; 0x122 <__bad_interrupt>
  ce:	00 00       	nop
  d0:	28 c0       	rjmp	.+80     	; 0x122 <__bad_interrupt>
  d2:	00 00       	nop
  d4:	26 c0       	rjmp	.+76     	; 0x122 <__bad_interrupt>
  d6:	00 00       	nop
  d8:	24 c0       	rjmp	.+72     	; 0x122 <__bad_interrupt>
  da:	00 00       	nop
  dc:	22 c0       	rjmp	.+68     	; 0x122 <__bad_interrupt>
  de:	00 00       	nop
  e0:	20 c0       	rjmp	.+64     	; 0x122 <__bad_interrupt>
	...

000000e4 <__ctors_end>:
  e4:	11 24       	eor	r1, r1
  e6:	1f be       	out	0x3f, r1	; 63
  e8:	cf ef       	ldi	r28, 0xFF	; 255
  ea:	d1 e2       	ldi	r29, 0x21	; 33
  ec:	de bf       	out	0x3e, r29	; 62
  ee:	cd bf       	out	0x3d, r28	; 61
  f0:	00 e0       	ldi	r16, 0x00	; 0
  f2:	0c bf       	out	0x3c, r16	; 60

000000f4 <__do_copy_data>:
  f4:	12 e0       	ldi	r17, 0x02	; 2
  f6:	a0 e0       	ldi	r26, 0x00	; 0
  f8:	b2 e0       	ldi	r27, 0x02	; 2
  fa:	e8 ed       	ldi	r30, 0xD8	; 216
  fc:	f8 e0       	ldi	r31, 0x08	; 8
  fe:	00 e0       	ldi	r16, 0x00	; 0
 100:	0b bf       	out	0x3b, r16	; 59
 102:	02 c0       	rjmp	.+4      	; 0x108 <__do_copy_data+0x14>
 104:	07 90       	elpm	r0, Z+
 106:	0d 92       	st	X+, r0
 108:	a2 30       	cpi	r26, 0x02	; 2
 10a:	b1 07       	cpc	r27, r17
 10c:	d9 f7       	brne	.-10     	; 0x104 <__do_copy_data+0x10>

0000010e <__do_clear_bss>:
 10e:	22 e0       	ldi	r18, 0x02	; 2
 110:	a2 e0       	ldi	r26, 0x02	; 2
 112:	b2 e0       	ldi	r27, 0x02	; 2
 114:	01 c0       	rjmp	.+2      	; 0x118 <.do_clear_bss_start>

00000116 <.do_clear_bss_loop>:
 116:	1d 92       	st	X+, r1

00000118 <.do_clear_bss_start>:
 118:	a5 30       	cpi	r26, 0x05	; 5
 11a:	b2 07       	cpc	r27, r18
 11c:	e1 f7       	brne	.-8      	; 0x116 <.do_clear_bss_loop>
 11e:	5b d2       	rcall	.+1206   	; 0x5d6 <main>
 120:	d9 c3       	rjmp	.+1970   	; 0x8d4 <_exit>

00000122 <__bad_interrupt>:
 122:	6e cf       	rjmp	.-292    	; 0x0 <__vectors>

00000124 <initDoor>:
#include "Switch.h"
int pos = 0;

void initDoor(void)
{
	DDRH |= 0b00011000;
 124:	e1 e0       	ldi	r30, 0x01	; 1
 126:	f1 e0       	ldi	r31, 0x01	; 1
 128:	80 81       	ld	r24, Z
 12a:	88 61       	ori	r24, 0x18	; 24
 12c:	80 83       	st	Z, r24
	TCCR4A = 0b11110000;
 12e:	80 ef       	ldi	r24, 0xF0	; 240
 130:	80 93 a0 00 	sts	0x00A0, r24	; 0x8000a0 <__TEXT_REGION_LENGTH__+0x7000a0>
	TCCR4B = 0b00010011;
 134:	83 e1       	ldi	r24, 0x13	; 19
 136:	80 93 a1 00 	sts	0x00A1, r24	; 0x8000a1 <__TEXT_REGION_LENGTH__+0x7000a1>
	ICR4 = 2500;
 13a:	84 ec       	ldi	r24, 0xC4	; 196
 13c:	99 e0       	ldi	r25, 0x09	; 9
 13e:	90 93 a7 00 	sts	0x00A7, r25	; 0x8000a7 <__TEXT_REGION_LENGTH__+0x7000a7>
 142:	80 93 a6 00 	sts	0x00A6, r24	; 0x8000a6 <__TEXT_REGION_LENGTH__+0x7000a6>
	OCR4A = 2250;
 146:	8a ec       	ldi	r24, 0xCA	; 202
 148:	98 e0       	ldi	r25, 0x08	; 8
 14a:	90 93 a9 00 	sts	0x00A9, r25	; 0x8000a9 <__TEXT_REGION_LENGTH__+0x7000a9>
 14e:	80 93 a8 00 	sts	0x00A8, r24	; 0x8000a8 <__TEXT_REGION_LENGTH__+0x7000a8>
	OCR4B = 2405;
 152:	85 e6       	ldi	r24, 0x65	; 101
 154:	99 e0       	ldi	r25, 0x09	; 9
 156:	90 93 ab 00 	sts	0x00AB, r25	; 0x8000ab <__TEXT_REGION_LENGTH__+0x7000ab>
 15a:	80 93 aa 00 	sts	0x00AA, r24	; 0x8000aa <__TEXT_REGION_LENGTH__+0x7000aa>
 15e:	08 95       	ret

00000160 <openDoor>:
}

void openDoor(unsigned char side)
{
	if (side == 'h')
 160:	88 36       	cpi	r24, 0x68	; 104
 162:	f9 f4       	brne	.+62     	; 0x1a2 <openDoor+0x42>
	{
		for (pos=0; pos <=155; pos++)
 164:	10 92 03 02 	sts	0x0203, r1	; 0x800203 <__data_end+0x1>
 168:	10 92 02 02 	sts	0x0202, r1	; 0x800202 <__data_end>
 16c:	80 e0       	ldi	r24, 0x00	; 0
 16e:	90 e0       	ldi	r25, 0x00	; 0
		{
			OCR4A = (1*pos)+2250;
 170:	e8 ea       	ldi	r30, 0xA8	; 168
 172:	f0 e0       	ldi	r31, 0x00	; 0
 174:	86 53       	subi	r24, 0x36	; 54
 176:	97 4f       	sbci	r25, 0xF7	; 247
 178:	91 83       	std	Z+1, r25	; 0x01
 17a:	80 83       	st	Z, r24
	#else
		//round up by default
		__ticks_dc = (uint32_t)(ceil(fabs(__tmp)));
	#endif

	__builtin_avr_delay_cycles(__ticks_dc);
 17c:	8f e3       	ldi	r24, 0x3F	; 63
 17e:	9c e9       	ldi	r25, 0x9C	; 156
 180:	01 97       	sbiw	r24, 0x01	; 1
 182:	f1 f7       	brne	.-4      	; 0x180 <openDoor+0x20>
 184:	00 c0       	rjmp	.+0      	; 0x186 <openDoor+0x26>
 186:	00 00       	nop

void openDoor(unsigned char side)
{
	if (side == 'h')
	{
		for (pos=0; pos <=155; pos++)
 188:	80 91 02 02 	lds	r24, 0x0202	; 0x800202 <__data_end>
 18c:	90 91 03 02 	lds	r25, 0x0203	; 0x800203 <__data_end+0x1>
 190:	01 96       	adiw	r24, 0x01	; 1
 192:	90 93 03 02 	sts	0x0203, r25	; 0x800203 <__data_end+0x1>
 196:	80 93 02 02 	sts	0x0202, r24	; 0x800202 <__data_end>
 19a:	8c 39       	cpi	r24, 0x9C	; 156
 19c:	91 05       	cpc	r25, r1
 19e:	54 f3       	brlt	.-44     	; 0x174 <openDoor+0x14>
 1a0:	08 95       	ret
		{
			OCR4A = (1*pos)+2250;
			_delay_ms(10);
		}
	}
	else if (side == 'v')
 1a2:	86 37       	cpi	r24, 0x76	; 118
 1a4:	f1 f4       	brne	.+60     	; 0x1e2 <openDoor+0x82>
	{
		for (pos=155; pos >0; pos--)
 1a6:	8b e9       	ldi	r24, 0x9B	; 155
 1a8:	90 e0       	ldi	r25, 0x00	; 0
 1aa:	90 93 03 02 	sts	0x0203, r25	; 0x800203 <__data_end+0x1>
 1ae:	80 93 02 02 	sts	0x0202, r24	; 0x800202 <__data_end>
		{
			OCR4B = (1*pos) + 2250;
 1b2:	ea ea       	ldi	r30, 0xAA	; 170
 1b4:	f0 e0       	ldi	r31, 0x00	; 0
 1b6:	86 53       	subi	r24, 0x36	; 54
 1b8:	97 4f       	sbci	r25, 0xF7	; 247
 1ba:	91 83       	std	Z+1, r25	; 0x01
 1bc:	80 83       	st	Z, r24
 1be:	8f e3       	ldi	r24, 0x3F	; 63
 1c0:	9c e9       	ldi	r25, 0x9C	; 156
 1c2:	01 97       	sbiw	r24, 0x01	; 1
 1c4:	f1 f7       	brne	.-4      	; 0x1c2 <openDoor+0x62>
 1c6:	00 c0       	rjmp	.+0      	; 0x1c8 <openDoor+0x68>
 1c8:	00 00       	nop
			_delay_ms(10);
		}
	}
	else if (side == 'v')
	{
		for (pos=155; pos >0; pos--)
 1ca:	80 91 02 02 	lds	r24, 0x0202	; 0x800202 <__data_end>
 1ce:	90 91 03 02 	lds	r25, 0x0203	; 0x800203 <__data_end+0x1>
 1d2:	01 97       	sbiw	r24, 0x01	; 1
 1d4:	90 93 03 02 	sts	0x0203, r25	; 0x800203 <__data_end+0x1>
 1d8:	80 93 02 02 	sts	0x0202, r24	; 0x800202 <__data_end>
 1dc:	18 16       	cp	r1, r24
 1de:	19 06       	cpc	r1, r25
 1e0:	54 f3       	brlt	.-44     	; 0x1b6 <openDoor+0x56>
 1e2:	08 95       	ret

000001e4 <closeDoor>:
	
}

void closeDoor(unsigned char side)
{
	if (side == 'h')
 1e4:	88 36       	cpi	r24, 0x68	; 104
 1e6:	81 f4       	brne	.+32     	; 0x208 <closeDoor+0x24>
	{
			OCR4A = 2250;
 1e8:	8a ec       	ldi	r24, 0xCA	; 202
 1ea:	98 e0       	ldi	r25, 0x08	; 8
 1ec:	90 93 a9 00 	sts	0x00A9, r25	; 0x8000a9 <__TEXT_REGION_LENGTH__+0x7000a9>
 1f0:	80 93 a8 00 	sts	0x00A8, r24	; 0x8000a8 <__TEXT_REGION_LENGTH__+0x7000a8>
 1f4:	2f ef       	ldi	r18, 0xFF	; 255
 1f6:	83 ed       	ldi	r24, 0xD3	; 211
 1f8:	90 e3       	ldi	r25, 0x30	; 48
 1fa:	21 50       	subi	r18, 0x01	; 1
 1fc:	80 40       	sbci	r24, 0x00	; 0
 1fe:	90 40       	sbci	r25, 0x00	; 0
 200:	e1 f7       	brne	.-8      	; 0x1fa <closeDoor+0x16>
 202:	00 c0       	rjmp	.+0      	; 0x204 <closeDoor+0x20>
 204:	00 00       	nop
 206:	08 95       	ret
			_delay_ms(1000);
	}
	else if (side == 'v')
 208:	86 37       	cpi	r24, 0x76	; 118
 20a:	79 f4       	brne	.+30     	; 0x22a <closeDoor+0x46>
	{
		OCR4B = 2405;
 20c:	85 e6       	ldi	r24, 0x65	; 101
 20e:	99 e0       	ldi	r25, 0x09	; 9
 210:	90 93 ab 00 	sts	0x00AB, r25	; 0x8000ab <__TEXT_REGION_LENGTH__+0x7000ab>
 214:	80 93 aa 00 	sts	0x00AA, r24	; 0x8000aa <__TEXT_REGION_LENGTH__+0x7000aa>
 218:	2f ef       	ldi	r18, 0xFF	; 255
 21a:	83 ed       	ldi	r24, 0xD3	; 211
 21c:	90 e3       	ldi	r25, 0x30	; 48
 21e:	21 50       	subi	r18, 0x01	; 1
 220:	80 40       	sbci	r24, 0x00	; 0
 222:	90 40       	sbci	r25, 0x00	; 0
 224:	e1 f7       	brne	.-8      	; 0x21e <closeDoor+0x3a>
 226:	00 c0       	rjmp	.+0      	; 0x228 <closeDoor+0x44>
 228:	00 00       	nop
 22a:	08 95       	ret

0000022c <initLedPort>:
#define F_CPU 16000000
#include <avr/io.h>
#include <util/delay.h>
void initLedPort()
{
	DDRB |= 0b00010000;
 22c:	24 9a       	sbi	0x04, 4	; 4
	DDRH |= 0b01000000;
 22e:	e1 e0       	ldi	r30, 0x01	; 1
 230:	f1 e0       	ldi	r31, 0x01	; 1
 232:	80 81       	ld	r24, Z
 234:	80 64       	ori	r24, 0x40	; 64
 236:	80 83       	st	Z, r24
	TCCR2A = 0b10100001;
 238:	81 ea       	ldi	r24, 0xA1	; 161
 23a:	80 93 b0 00 	sts	0x00B0, r24	; 0x8000b0 <__TEXT_REGION_LENGTH__+0x7000b0>
	TCCR2B = 0b00000001;
 23e:	81 e0       	ldi	r24, 0x01	; 1
 240:	80 93 b1 00 	sts	0x00B1, r24	; 0x8000b1 <__TEXT_REGION_LENGTH__+0x7000b1>
	OCR2A = 0;
 244:	10 92 b3 00 	sts	0x00B3, r1	; 0x8000b3 <__TEXT_REGION_LENGTH__+0x7000b3>
	OCR2B = 0;
 248:	10 92 b4 00 	sts	0x00B4, r1	; 0x8000b4 <__TEXT_REGION_LENGTH__+0x7000b4>
 24c:	08 95       	ret

0000024e <turnOn>:
	
}
void turnOn()
{
		OCR2A = 255;
 24e:	8f ef       	ldi	r24, 0xFF	; 255
 250:	80 93 b3 00 	sts	0x00B3, r24	; 0x8000b3 <__TEXT_REGION_LENGTH__+0x7000b3>
		OCR2B = 20;
 254:	84 e1       	ldi	r24, 0x14	; 20
 256:	80 93 b4 00 	sts	0x00B4, r24	; 0x8000b4 <__TEXT_REGION_LENGTH__+0x7000b4>
 25a:	08 95       	ret

0000025c <brake>:
}

void brake()
{
		OCR2B = 255;
 25c:	8f ef       	ldi	r24, 0xFF	; 255
 25e:	80 93 b4 00 	sts	0x00B4, r24	; 0x8000b4 <__TEXT_REGION_LENGTH__+0x7000b4>
 262:	08 95       	ret

00000264 <turnOff>:
}
void turnOff()
{
		OCR2A = 0;
 264:	10 92 b3 00 	sts	0x00B3, r1	; 0x8000b3 <__TEXT_REGION_LENGTH__+0x7000b3>
		OCR2B = 0;
 268:	10 92 b4 00 	sts	0x00B4, r1	; 0x8000b4 <__TEXT_REGION_LENGTH__+0x7000b4>
 26c:	08 95       	ret

0000026e <__vector_1>:
	}
	EIFR |= (1<<INTF2);
}
*/
ISR(INT0_vect)
{
 26e:	1f 92       	push	r1
 270:	0f 92       	push	r0
 272:	0f b6       	in	r0, 0x3f	; 63
 274:	0f 92       	push	r0
 276:	11 24       	eor	r1, r1
 278:	0b b6       	in	r0, 0x3b	; 59
 27a:	0f 92       	push	r0
 27c:	2f 93       	push	r18
 27e:	3f 93       	push	r19
 280:	4f 93       	push	r20
 282:	5f 93       	push	r21
 284:	6f 93       	push	r22
 286:	7f 93       	push	r23
 288:	8f 93       	push	r24
 28a:	9f 93       	push	r25
 28c:	af 93       	push	r26
 28e:	bf 93       	push	r27
 290:	ef 93       	push	r30
 292:	ff 93       	push	r31
	cli();
 294:	f8 94       	cli
	refleksTaeller ++;
 296:	80 91 04 02 	lds	r24, 0x0204	; 0x800204 <refleksTaeller>
 29a:	8f 5f       	subi	r24, 0xFF	; 255
 29c:	80 93 04 02 	sts	0x0204, r24	; 0x800204 <refleksTaeller>
	if(refleksTaeller == 1)
 2a0:	81 30       	cpi	r24, 0x01	; 1
 2a2:	71 f4       	brne	.+28     	; 0x2c0 <__vector_1+0x52>
	{
		playSound(1);
 2a4:	92 d2       	rcall	.+1316   	; 0x7ca <playSound>
 2a6:	24 e5       	ldi	r18, 0x54	; 84
 2a8:	37 e9       	ldi	r19, 0x97	; 151
 2aa:	8f eb       	ldi	r24, 0xBF	; 191
 2ac:	91 e0       	ldi	r25, 0x01	; 1
 2ae:	21 50       	subi	r18, 0x01	; 1
 2b0:	30 40       	sbci	r19, 0x00	; 0
 2b2:	80 40       	sbci	r24, 0x00	; 0
 2b4:	90 40       	sbci	r25, 0x00	; 0
 2b6:	d9 f7       	brne	.-10     	; 0x2ae <__vector_1+0x40>
 2b8:	00 c0       	rjmp	.+0      	; 0x2ba <__vector_1+0x4c>
 2ba:	00 c0       	rjmp	.+0      	; 0x2bc <__vector_1+0x4e>
		_delay_ms(11000);
		start();
 2bc:	00 00       	nop
 2be:	23 d2       	rcall	.+1094   	; 0x706 <start>
	}
	if(refleksTaeller == 2)
 2c0:	80 91 04 02 	lds	r24, 0x0204	; 0x800204 <refleksTaeller>
 2c4:	82 30       	cpi	r24, 0x02	; 2
	{
		
		playSound(2);
 2c6:	11 f4       	brne	.+4      	; 0x2cc <__vector_1+0x5e>
 2c8:	80 d2       	rcall	.+1280   	; 0x7ca <playSound>
 2ca:	8d c0       	rjmp	.+282    	; 0x3e6 <__vector_1+0x178>
	}
	
	else if(refleksTaeller == 3)
 2cc:	83 30       	cpi	r24, 0x03	; 3
	{
		playSound(2);
 2ce:	31 f4       	brne	.+12     	; 0x2dc <__vector_1+0x6e>
 2d0:	82 e0       	ldi	r24, 0x02	; 2
		setSpeed(100);
 2d2:	7b d2       	rcall	.+1270   	; 0x7ca <playSound>
 2d4:	84 e6       	ldi	r24, 0x64	; 100
 2d6:	90 e0       	ldi	r25, 0x00	; 0
 2d8:	9d d1       	rcall	.+826    	; 0x614 <setSpeed>
		
	}
	
	else if(refleksTaeller == 4)
 2da:	85 c0       	rjmp	.+266    	; 0x3e6 <__vector_1+0x178>
	{
		playSound(2);
 2dc:	84 30       	cpi	r24, 0x04	; 4
 2de:	31 f4       	brne	.+12     	; 0x2ec <__vector_1+0x7e>
 2e0:	82 e0       	ldi	r24, 0x02	; 2
		setSpeed(65);
 2e2:	73 d2       	rcall	.+1254   	; 0x7ca <playSound>
 2e4:	81 e4       	ldi	r24, 0x41	; 65
 2e6:	90 e0       	ldi	r25, 0x00	; 0
 2e8:	95 d1       	rcall	.+810    	; 0x614 <setSpeed>
	
	}
	
	else if(refleksTaeller == 5)
 2ea:	7d c0       	rjmp	.+250    	; 0x3e6 <__vector_1+0x178>
 2ec:	85 30       	cpi	r24, 0x05	; 5
	
	{
		playSound(2);
 2ee:	31 f4       	brne	.+12     	; 0x2fc <__vector_1+0x8e>
 2f0:	82 e0       	ldi	r24, 0x02	; 2
		setSpeed(100);
 2f2:	6b d2       	rcall	.+1238   	; 0x7ca <playSound>
 2f4:	84 e6       	ldi	r24, 0x64	; 100
 2f6:	90 e0       	ldi	r25, 0x00	; 0
 2f8:	8d d1       	rcall	.+794    	; 0x614 <setSpeed>
		
	}
	
	else if(refleksTaeller == 6)
 2fa:	75 c0       	rjmp	.+234    	; 0x3e6 <__vector_1+0x178>
 2fc:	86 30       	cpi	r24, 0x06	; 6
	
	{
		playSound(2);
 2fe:	81 f4       	brne	.+32     	; 0x320 <__vector_1+0xb2>
 300:	82 e0       	ldi	r24, 0x02	; 2
 302:	63 d2       	rcall	.+1222   	; 0x7ca <playSound>
		slowDown(10,50);
 304:	62 e3       	ldi	r22, 0x32	; 50
 306:	8a e0       	ldi	r24, 0x0A	; 10
 308:	03 d2       	rcall	.+1030   	; 0x710 <slowDown>
 30a:	2f ef       	ldi	r18, 0xFF	; 255
 30c:	39 e6       	ldi	r19, 0x69	; 105
 30e:	88 e1       	ldi	r24, 0x18	; 24
 310:	21 50       	subi	r18, 0x01	; 1
 312:	30 40       	sbci	r19, 0x00	; 0
 314:	80 40       	sbci	r24, 0x00	; 0
 316:	e1 f7       	brne	.-8      	; 0x310 <__vector_1+0xa2>
		_delay_ms(500);
		turnOn();
 318:	00 c0       	rjmp	.+0      	; 0x31a <__vector_1+0xac>
 31a:	00 00       	nop
 31c:	98 df       	rcall	.-208    	; 0x24e <turnOn>
		
	}
	else if(refleksTaeller == 7)
 31e:	63 c0       	rjmp	.+198    	; 0x3e6 <__vector_1+0x178>
 320:	87 30       	cpi	r24, 0x07	; 7
	{
		playSound(2);
 322:	a9 f4       	brne	.+42     	; 0x34e <__vector_1+0xe0>
 324:	82 e0       	ldi	r24, 0x02	; 2
		slowDown(10,0);
 326:	51 d2       	rcall	.+1186   	; 0x7ca <playSound>
 328:	60 e0       	ldi	r22, 0x00	; 0
 32a:	8a e0       	ldi	r24, 0x0A	; 10
 32c:	f1 d1       	rcall	.+994    	; 0x710 <slowDown>
 32e:	9f ef       	ldi	r25, 0xFF	; 255
 330:	29 e6       	ldi	r18, 0x69	; 105
 332:	38 e1       	ldi	r19, 0x18	; 24
 334:	91 50       	subi	r25, 0x01	; 1
 336:	20 40       	sbci	r18, 0x00	; 0
 338:	30 40       	sbci	r19, 0x00	; 0
		_delay_ms(500);
		turnOn();
 33a:	e1 f7       	brne	.-8      	; 0x334 <__vector_1+0xc6>
 33c:	00 c0       	rjmp	.+0      	; 0x33e <__vector_1+0xd0>
		setDirection(0);
 33e:	00 00       	nop
 340:	86 df       	rcall	.-244    	; 0x24e <turnOn>
		setSpeed(80);
 342:	80 e0       	ldi	r24, 0x00	; 0
 344:	91 d1       	rcall	.+802    	; 0x668 <setDirection>
 346:	80 e5       	ldi	r24, 0x50	; 80
 348:	90 e0       	ldi	r25, 0x00	; 0
		
	}
	
	else if(refleksTaeller == 8)
 34a:	64 d1       	rcall	.+712    	; 0x614 <setSpeed>
 34c:	4c c0       	rjmp	.+152    	; 0x3e6 <__vector_1+0x178>
	{
		playSound(2);
 34e:	88 30       	cpi	r24, 0x08	; 8
 350:	31 f4       	brne	.+12     	; 0x35e <__vector_1+0xf0>
 352:	82 e0       	ldi	r24, 0x02	; 2
		setSpeed(50);
 354:	3a d2       	rcall	.+1140   	; 0x7ca <playSound>
 356:	82 e3       	ldi	r24, 0x32	; 50
 358:	90 e0       	ldi	r25, 0x00	; 0
 35a:	5c d1       	rcall	.+696    	; 0x614 <setSpeed>
	}
	
	else if(refleksTaeller == 9)
 35c:	44 c0       	rjmp	.+136    	; 0x3e6 <__vector_1+0x178>
 35e:	89 30       	cpi	r24, 0x09	; 9
	{
		playSound(2);
 360:	a9 f4       	brne	.+42     	; 0x38c <__vector_1+0x11e>
 362:	82 e0       	ldi	r24, 0x02	; 2
		slowDown(5,0);
 364:	32 d2       	rcall	.+1124   	; 0x7ca <playSound>
 366:	60 e0       	ldi	r22, 0x00	; 0
 368:	85 e0       	ldi	r24, 0x05	; 5
 36a:	d2 d1       	rcall	.+932    	; 0x710 <slowDown>
 36c:	8f ef       	ldi	r24, 0xFF	; 255
 36e:	99 e6       	ldi	r25, 0x69	; 105
 370:	28 e1       	ldi	r18, 0x18	; 24
 372:	81 50       	subi	r24, 0x01	; 1
 374:	90 40       	sbci	r25, 0x00	; 0
 376:	20 40       	sbci	r18, 0x00	; 0
 378:	e1 f7       	brne	.-8      	; 0x372 <__vector_1+0x104>
		_delay_ms(500);
		turnOn();
 37a:	00 c0       	rjmp	.+0      	; 0x37c <__vector_1+0x10e>
		setDirection(1);
 37c:	00 00       	nop
 37e:	67 df       	rcall	.-306    	; 0x24e <turnOn>
		setSpeed(90);
 380:	81 e0       	ldi	r24, 0x01	; 1
 382:	72 d1       	rcall	.+740    	; 0x668 <setDirection>
 384:	8a e5       	ldi	r24, 0x5A	; 90
 386:	90 e0       	ldi	r25, 0x00	; 0
 388:	45 d1       	rcall	.+650    	; 0x614 <setSpeed>
		
	}
	
	else if(refleksTaeller == 10)
 38a:	2d c0       	rjmp	.+90     	; 0x3e6 <__vector_1+0x178>
 38c:	8a 30       	cpi	r24, 0x0A	; 10
	
	{
		playSound(2);
 38e:	19 f4       	brne	.+6      	; 0x396 <__vector_1+0x128>
 390:	82 e0       	ldi	r24, 0x02	; 2
 392:	1b d2       	rcall	.+1078   	; 0x7ca <playSound>
	}
	
	else if(refleksTaeller == 11)
 394:	28 c0       	rjmp	.+80     	; 0x3e6 <__vector_1+0x178>
 396:	8b 30       	cpi	r24, 0x0B	; 11
	
	{
		playSound(2);
 398:	19 f4       	brne	.+6      	; 0x3a0 <__vector_1+0x132>
 39a:	82 e0       	ldi	r24, 0x02	; 2
 39c:	16 d2       	rcall	.+1068   	; 0x7ca <playSound>
 39e:	23 c0       	rjmp	.+70     	; 0x3e6 <__vector_1+0x178>
	}
	else if(refleksTaeller == 12)
 3a0:	8c 30       	cpi	r24, 0x0C	; 12
 3a2:	09 f5       	brne	.+66     	; 0x3e6 <__vector_1+0x178>
	
	{
		playSound(2);
 3a4:	82 e0       	ldi	r24, 0x02	; 2
 3a6:	11 d2       	rcall	.+1058   	; 0x7ca <playSound>
		stop();
 3a8:	47 d1       	rcall	.+654    	; 0x638 <stop>
		playSound(3);
 3aa:	83 e0       	ldi	r24, 0x03	; 3
 3ac:	0e d2       	rcall	.+1052   	; 0x7ca <playSound>
 3ae:	3f ef       	ldi	r19, 0xFF	; 255
 3b0:	83 ed       	ldi	r24, 0xD3	; 211
 3b2:	90 e3       	ldi	r25, 0x30	; 48
 3b4:	31 50       	subi	r19, 0x01	; 1
 3b6:	80 40       	sbci	r24, 0x00	; 0
 3b8:	90 40       	sbci	r25, 0x00	; 0
 3ba:	e1 f7       	brne	.-8      	; 0x3b4 <__vector_1+0x146>
 3bc:	00 c0       	rjmp	.+0      	; 0x3be <__vector_1+0x150>
 3be:	00 00       	nop
 3c0:	86 e7       	ldi	r24, 0x76	; 118
		_delay_ms(1000);
		openDoor('v');
 3c2:	ce de       	rcall	.-612    	; 0x160 <openDoor>
 3c4:	88 e6       	ldi	r24, 0x68	; 104
 3c6:	cc de       	rcall	.-616    	; 0x160 <openDoor>
		openDoor('h');
 3c8:	2f ef       	ldi	r18, 0xFF	; 255
 3ca:	33 e2       	ldi	r19, 0x23	; 35
 3cc:	84 ef       	ldi	r24, 0xF4	; 244
 3ce:	21 50       	subi	r18, 0x01	; 1
 3d0:	30 40       	sbci	r19, 0x00	; 0
 3d2:	80 40       	sbci	r24, 0x00	; 0
 3d4:	e1 f7       	brne	.-8      	; 0x3ce <__vector_1+0x160>
 3d6:	00 c0       	rjmp	.+0      	; 0x3d8 <__vector_1+0x16a>
 3d8:	00 00       	nop
 3da:	86 e7       	ldi	r24, 0x76	; 118
 3dc:	03 df       	rcall	.-506    	; 0x1e4 <closeDoor>
 3de:	88 e6       	ldi	r24, 0x68	; 104
		_delay_ms(5000);
		closeDoor('v');
 3e0:	01 df       	rcall	.-510    	; 0x1e4 <closeDoor>
 3e2:	10 92 04 02 	sts	0x0204, r1	; 0x800204 <refleksTaeller>
		closeDoor('h');
 3e6:	9f ef       	ldi	r25, 0xFF	; 255
 3e8:	23 ed       	ldi	r18, 0xD3	; 211
 3ea:	30 e3       	ldi	r19, 0x30	; 48
		refleksTaeller = 0;
 3ec:	91 50       	subi	r25, 0x01	; 1
 3ee:	20 40       	sbci	r18, 0x00	; 0
 3f0:	30 40       	sbci	r19, 0x00	; 0
 3f2:	e1 f7       	brne	.-8      	; 0x3ec <__vector_1+0x17e>
 3f4:	00 c0       	rjmp	.+0      	; 0x3f6 <__vector_1+0x188>
 3f6:	00 00       	nop
 3f8:	e0 9a       	sbi	0x1c, 0	; 28
 3fa:	78 94       	sei
 3fc:	ff 91       	pop	r31
 3fe:	ef 91       	pop	r30
 400:	bf 91       	pop	r27
	}
	_delay_ms(1000);
	EIFR |= (1<<INTF0);
 402:	af 91       	pop	r26
	sei();
 404:	9f 91       	pop	r25
}
 406:	8f 91       	pop	r24
 408:	7f 91       	pop	r23
 40a:	6f 91       	pop	r22
 40c:	5f 91       	pop	r21
 40e:	4f 91       	pop	r20
 410:	3f 91       	pop	r19
 412:	2f 91       	pop	r18
 414:	0f 90       	pop	r0
 416:	0b be       	out	0x3b, r0	; 59
 418:	0f 90       	pop	r0
 41a:	0f be       	out	0x3f, r0	; 63
 41c:	0f 90       	pop	r0
 41e:	1f 90       	pop	r1
 420:	18 95       	reti

00000422 <__vector_2>:
 422:	1f 92       	push	r1
 424:	0f 92       	push	r0
 426:	0f b6       	in	r0, 0x3f	; 63
 428:	0f 92       	push	r0
 42a:	11 24       	eor	r1, r1

ISR(INT1_vect)
{
 42c:	0b b6       	in	r0, 0x3b	; 59
 42e:	0f 92       	push	r0
 430:	2f 93       	push	r18
 432:	3f 93       	push	r19
 434:	4f 93       	push	r20
 436:	5f 93       	push	r21
 438:	6f 93       	push	r22
 43a:	7f 93       	push	r23
 43c:	8f 93       	push	r24
 43e:	9f 93       	push	r25
 440:	af 93       	push	r26
 442:	bf 93       	push	r27
 444:	ef 93       	push	r30
 446:	ff 93       	push	r31
	cli();
 448:	f8 94       	cli
	refleksTaeller ++;
 44a:	80 91 04 02 	lds	r24, 0x0204	; 0x800204 <refleksTaeller>
 44e:	8f 5f       	subi	r24, 0xFF	; 255
 450:	80 93 04 02 	sts	0x0204, r24	; 0x800204 <refleksTaeller>
	if(refleksTaeller == 1)
 454:	81 30       	cpi	r24, 0x01	; 1
 456:	71 f4       	brne	.+28     	; 0x474 <__vector_2+0x52>
	{
		playSound(1);
 458:	b8 d1       	rcall	.+880    	; 0x7ca <playSound>
 45a:	24 e5       	ldi	r18, 0x54	; 84
 45c:	37 e9       	ldi	r19, 0x97	; 151
 45e:	8f eb       	ldi	r24, 0xBF	; 191
 460:	91 e0       	ldi	r25, 0x01	; 1
 462:	21 50       	subi	r18, 0x01	; 1
 464:	30 40       	sbci	r19, 0x00	; 0
 466:	80 40       	sbci	r24, 0x00	; 0
 468:	90 40       	sbci	r25, 0x00	; 0
 46a:	d9 f7       	brne	.-10     	; 0x462 <__vector_2+0x40>
 46c:	00 c0       	rjmp	.+0      	; 0x46e <__vector_2+0x4c>
 46e:	00 c0       	rjmp	.+0      	; 0x470 <__vector_2+0x4e>
		_delay_ms(11000);
		start();
 470:	00 00       	nop
 472:	49 d1       	rcall	.+658    	; 0x706 <start>
	}
	if(refleksTaeller == 2)
 474:	80 91 04 02 	lds	r24, 0x0204	; 0x800204 <refleksTaeller>
 478:	82 30       	cpi	r24, 0x02	; 2
	{
		
		playSound(2);
 47a:	11 f4       	brne	.+4      	; 0x480 <__vector_2+0x5e>
 47c:	a6 d1       	rcall	.+844    	; 0x7ca <playSound>
 47e:	8d c0       	rjmp	.+282    	; 0x59a <__vector_2+0x178>
	}
	
	else if(refleksTaeller == 3)
 480:	83 30       	cpi	r24, 0x03	; 3
	{
		playSound(2);
 482:	31 f4       	brne	.+12     	; 0x490 <__vector_2+0x6e>
 484:	82 e0       	ldi	r24, 0x02	; 2
		setSpeed(100);
 486:	a1 d1       	rcall	.+834    	; 0x7ca <playSound>
 488:	84 e6       	ldi	r24, 0x64	; 100
 48a:	90 e0       	ldi	r25, 0x00	; 0
 48c:	c3 d0       	rcall	.+390    	; 0x614 <setSpeed>
		
	}
	
	else if(refleksTaeller == 4)
 48e:	85 c0       	rjmp	.+266    	; 0x59a <__vector_2+0x178>
	{
		playSound(2);
 490:	84 30       	cpi	r24, 0x04	; 4
 492:	31 f4       	brne	.+12     	; 0x4a0 <__vector_2+0x7e>
 494:	82 e0       	ldi	r24, 0x02	; 2
		setSpeed(65);
 496:	99 d1       	rcall	.+818    	; 0x7ca <playSound>
 498:	81 e4       	ldi	r24, 0x41	; 65
 49a:	90 e0       	ldi	r25, 0x00	; 0
 49c:	bb d0       	rcall	.+374    	; 0x614 <setSpeed>
			
	}
	
	else if(refleksTaeller == 5)
 49e:	7d c0       	rjmp	.+250    	; 0x59a <__vector_2+0x178>
 4a0:	85 30       	cpi	r24, 0x05	; 5
	
	{
		playSound(2);
 4a2:	31 f4       	brne	.+12     	; 0x4b0 <__vector_2+0x8e>
 4a4:	82 e0       	ldi	r24, 0x02	; 2
		setSpeed(100);
 4a6:	91 d1       	rcall	.+802    	; 0x7ca <playSound>
 4a8:	84 e6       	ldi	r24, 0x64	; 100
 4aa:	90 e0       	ldi	r25, 0x00	; 0
 4ac:	b3 d0       	rcall	.+358    	; 0x614 <setSpeed>
		
	}
	
	else if(refleksTaeller == 6)
 4ae:	75 c0       	rjmp	.+234    	; 0x59a <__vector_2+0x178>
 4b0:	86 30       	cpi	r24, 0x06	; 6
	
	{
		playSound(2);
 4b2:	81 f4       	brne	.+32     	; 0x4d4 <__vector_2+0xb2>
 4b4:	82 e0       	ldi	r24, 0x02	; 2
 4b6:	89 d1       	rcall	.+786    	; 0x7ca <playSound>
		slowDown(10,50);
 4b8:	62 e3       	ldi	r22, 0x32	; 50
 4ba:	8a e0       	ldi	r24, 0x0A	; 10
 4bc:	29 d1       	rcall	.+594    	; 0x710 <slowDown>
 4be:	2f ef       	ldi	r18, 0xFF	; 255
 4c0:	39 e6       	ldi	r19, 0x69	; 105
 4c2:	88 e1       	ldi	r24, 0x18	; 24
 4c4:	21 50       	subi	r18, 0x01	; 1
 4c6:	30 40       	sbci	r19, 0x00	; 0
 4c8:	80 40       	sbci	r24, 0x00	; 0
 4ca:	e1 f7       	brne	.-8      	; 0x4c4 <__vector_2+0xa2>
		_delay_ms(500);
		turnOn();
 4cc:	00 c0       	rjmp	.+0      	; 0x4ce <__vector_2+0xac>
 4ce:	00 00       	nop
 4d0:	be de       	rcall	.-644    	; 0x24e <turnOn>
		
	}
	else if(refleksTaeller == 7)
 4d2:	63 c0       	rjmp	.+198    	; 0x59a <__vector_2+0x178>
 4d4:	87 30       	cpi	r24, 0x07	; 7
	{
		playSound(2);
 4d6:	a9 f4       	brne	.+42     	; 0x502 <__vector_2+0xe0>
 4d8:	82 e0       	ldi	r24, 0x02	; 2
		slowDown(10, 0);
 4da:	77 d1       	rcall	.+750    	; 0x7ca <playSound>
 4dc:	60 e0       	ldi	r22, 0x00	; 0
 4de:	8a e0       	ldi	r24, 0x0A	; 10
 4e0:	17 d1       	rcall	.+558    	; 0x710 <slowDown>
 4e2:	9f ef       	ldi	r25, 0xFF	; 255
 4e4:	29 e6       	ldi	r18, 0x69	; 105
 4e6:	38 e1       	ldi	r19, 0x18	; 24
 4e8:	91 50       	subi	r25, 0x01	; 1
 4ea:	20 40       	sbci	r18, 0x00	; 0
 4ec:	30 40       	sbci	r19, 0x00	; 0
		_delay_ms(500);
		turnOn();
 4ee:	e1 f7       	brne	.-8      	; 0x4e8 <__vector_2+0xc6>
 4f0:	00 c0       	rjmp	.+0      	; 0x4f2 <__vector_2+0xd0>
		setDirection(0);
 4f2:	00 00       	nop
 4f4:	ac de       	rcall	.-680    	; 0x24e <turnOn>
		setSpeed(80);
 4f6:	80 e0       	ldi	r24, 0x00	; 0
 4f8:	b7 d0       	rcall	.+366    	; 0x668 <setDirection>
 4fa:	80 e5       	ldi	r24, 0x50	; 80
 4fc:	90 e0       	ldi	r25, 0x00	; 0
		
	}
	
	else if(refleksTaeller == 8)
 4fe:	8a d0       	rcall	.+276    	; 0x614 <setSpeed>
 500:	4c c0       	rjmp	.+152    	; 0x59a <__vector_2+0x178>
	{
		playSound(2);
 502:	88 30       	cpi	r24, 0x08	; 8
 504:	31 f4       	brne	.+12     	; 0x512 <__vector_2+0xf0>
 506:	82 e0       	ldi	r24, 0x02	; 2
		setSpeed(50);
 508:	60 d1       	rcall	.+704    	; 0x7ca <playSound>
 50a:	82 e3       	ldi	r24, 0x32	; 50
 50c:	90 e0       	ldi	r25, 0x00	; 0
 50e:	82 d0       	rcall	.+260    	; 0x614 <setSpeed>
	}
	
	else if(refleksTaeller == 9)
 510:	44 c0       	rjmp	.+136    	; 0x59a <__vector_2+0x178>
 512:	89 30       	cpi	r24, 0x09	; 9
	{
		playSound(2);
 514:	a9 f4       	brne	.+42     	; 0x540 <__vector_2+0x11e>
 516:	82 e0       	ldi	r24, 0x02	; 2
		slowDown(5,0);
 518:	58 d1       	rcall	.+688    	; 0x7ca <playSound>
 51a:	60 e0       	ldi	r22, 0x00	; 0
 51c:	85 e0       	ldi	r24, 0x05	; 5
 51e:	f8 d0       	rcall	.+496    	; 0x710 <slowDown>
 520:	8f ef       	ldi	r24, 0xFF	; 255
 522:	99 e6       	ldi	r25, 0x69	; 105
 524:	28 e1       	ldi	r18, 0x18	; 24
 526:	81 50       	subi	r24, 0x01	; 1
 528:	90 40       	sbci	r25, 0x00	; 0
 52a:	20 40       	sbci	r18, 0x00	; 0
 52c:	e1 f7       	brne	.-8      	; 0x526 <__vector_2+0x104>
		_delay_ms(500);
		turnOn();
 52e:	00 c0       	rjmp	.+0      	; 0x530 <__vector_2+0x10e>
		setDirection(1);
 530:	00 00       	nop
 532:	8d de       	rcall	.-742    	; 0x24e <turnOn>
		setSpeed(100);
 534:	81 e0       	ldi	r24, 0x01	; 1
 536:	98 d0       	rcall	.+304    	; 0x668 <setDirection>
 538:	84 e6       	ldi	r24, 0x64	; 100
 53a:	90 e0       	ldi	r25, 0x00	; 0
 53c:	6b d0       	rcall	.+214    	; 0x614 <setSpeed>
		
	}
	
	else if(refleksTaeller == 10)
 53e:	2d c0       	rjmp	.+90     	; 0x59a <__vector_2+0x178>
 540:	8a 30       	cpi	r24, 0x0A	; 10
	
	{
		playSound(2);
 542:	19 f4       	brne	.+6      	; 0x54a <__vector_2+0x128>
 544:	82 e0       	ldi	r24, 0x02	; 2
 546:	41 d1       	rcall	.+642    	; 0x7ca <playSound>
	}
	
	else if(refleksTaeller == 11)
 548:	28 c0       	rjmp	.+80     	; 0x59a <__vector_2+0x178>
 54a:	8b 30       	cpi	r24, 0x0B	; 11
	
	{
		playSound(2);
 54c:	19 f4       	brne	.+6      	; 0x554 <__vector_2+0x132>
 54e:	82 e0       	ldi	r24, 0x02	; 2
 550:	3c d1       	rcall	.+632    	; 0x7ca <playSound>
 552:	23 c0       	rjmp	.+70     	; 0x59a <__vector_2+0x178>
	}
	else if(refleksTaeller == 12)
 554:	8c 30       	cpi	r24, 0x0C	; 12
 556:	09 f5       	brne	.+66     	; 0x59a <__vector_2+0x178>
	
	{
		playSound(2);
 558:	82 e0       	ldi	r24, 0x02	; 2
 55a:	37 d1       	rcall	.+622    	; 0x7ca <playSound>
		stop();
 55c:	6d d0       	rcall	.+218    	; 0x638 <stop>
		playSound(3);
 55e:	83 e0       	ldi	r24, 0x03	; 3
 560:	34 d1       	rcall	.+616    	; 0x7ca <playSound>
 562:	3f ef       	ldi	r19, 0xFF	; 255
 564:	83 ed       	ldi	r24, 0xD3	; 211
 566:	90 e3       	ldi	r25, 0x30	; 48
 568:	31 50       	subi	r19, 0x01	; 1
 56a:	80 40       	sbci	r24, 0x00	; 0
 56c:	90 40       	sbci	r25, 0x00	; 0
 56e:	e1 f7       	brne	.-8      	; 0x568 <__vector_2+0x146>
 570:	00 c0       	rjmp	.+0      	; 0x572 <__vector_2+0x150>
 572:	00 00       	nop
 574:	86 e7       	ldi	r24, 0x76	; 118
		_delay_ms(1000);
		openDoor('v');
 576:	f4 dd       	rcall	.-1048   	; 0x160 <openDoor>
 578:	88 e6       	ldi	r24, 0x68	; 104
 57a:	f2 dd       	rcall	.-1052   	; 0x160 <openDoor>
		openDoor('h');
 57c:	2f ef       	ldi	r18, 0xFF	; 255
 57e:	33 e2       	ldi	r19, 0x23	; 35
 580:	84 ef       	ldi	r24, 0xF4	; 244
 582:	21 50       	subi	r18, 0x01	; 1
 584:	30 40       	sbci	r19, 0x00	; 0
 586:	80 40       	sbci	r24, 0x00	; 0
 588:	e1 f7       	brne	.-8      	; 0x582 <__vector_2+0x160>
 58a:	00 c0       	rjmp	.+0      	; 0x58c <__vector_2+0x16a>
 58c:	00 00       	nop
 58e:	86 e7       	ldi	r24, 0x76	; 118
 590:	29 de       	rcall	.-942    	; 0x1e4 <closeDoor>
 592:	88 e6       	ldi	r24, 0x68	; 104
		_delay_ms(5000);
		closeDoor('v');
 594:	27 de       	rcall	.-946    	; 0x1e4 <closeDoor>
 596:	10 92 04 02 	sts	0x0204, r1	; 0x800204 <refleksTaeller>
		closeDoor('h');
 59a:	9f ef       	ldi	r25, 0xFF	; 255
 59c:	23 ed       	ldi	r18, 0xD3	; 211
 59e:	30 e3       	ldi	r19, 0x30	; 48
		refleksTaeller = 0;
 5a0:	91 50       	subi	r25, 0x01	; 1
 5a2:	20 40       	sbci	r18, 0x00	; 0
 5a4:	30 40       	sbci	r19, 0x00	; 0
 5a6:	e1 f7       	brne	.-8      	; 0x5a0 <__vector_2+0x17e>
 5a8:	00 c0       	rjmp	.+0      	; 0x5aa <__vector_2+0x188>
 5aa:	00 00       	nop
 5ac:	e1 9a       	sbi	0x1c, 1	; 28
 5ae:	78 94       	sei
 5b0:	ff 91       	pop	r31
 5b2:	ef 91       	pop	r30
 5b4:	bf 91       	pop	r27
	}

	_delay_ms(1000);
	EIFR |= (1<<INTF1);
 5b6:	af 91       	pop	r26
	sei();
 5b8:	9f 91       	pop	r25
}
 5ba:	8f 91       	pop	r24
 5bc:	7f 91       	pop	r23
 5be:	6f 91       	pop	r22
 5c0:	5f 91       	pop	r21
 5c2:	4f 91       	pop	r20
 5c4:	3f 91       	pop	r19
 5c6:	2f 91       	pop	r18
 5c8:	0f 90       	pop	r0
 5ca:	0b be       	out	0x3b, r0	; 59
 5cc:	0f 90       	pop	r0
 5ce:	0f be       	out	0x3f, r0	; 63
 5d0:	0f 90       	pop	r0
 5d2:	1f 90       	pop	r1
 5d4:	18 95       	reti

000005d6 <main>:
 5d6:	78 94       	sei
 5d8:	0d d1       	rcall	.+538    	; 0x7f4 <initSwitchPort>
 5da:	56 d0       	rcall	.+172    	; 0x688 <initMotor>
 5dc:	a3 dd       	rcall	.-1210   	; 0x124 <initDoor>
 5de:	26 de       	rcall	.-948    	; 0x22c <initLedPort>
{
	sei();
	initSwitchPort();
	initMotor();
	initDoor();
	initLedPort();
 5e0:	48 e0       	ldi	r20, 0x08	; 8
 5e2:	60 e8       	ldi	r22, 0x80	; 128
	InitUART(9600, 8);
 5e4:	75 e2       	ldi	r23, 0x25	; 37
 5e6:	80 e0       	ldi	r24, 0x00	; 0
 5e8:	90 e0       	ldi	r25, 0x00	; 0
 5ea:	0f d1       	rcall	.+542    	; 0x80a <InitUART>
 5ec:	2f ef       	ldi	r18, 0xFF	; 255
 5ee:	83 ed       	ldi	r24, 0xD3	; 211
 5f0:	90 e3       	ldi	r25, 0x30	; 48
 5f2:	21 50       	subi	r18, 0x01	; 1
 5f4:	80 40       	sbci	r24, 0x00	; 0
 5f6:	90 40       	sbci	r25, 0x00	; 0
 5f8:	e1 f7       	brne	.-8      	; 0x5f2 <main+0x1c>
 5fa:	00 c0       	rjmp	.+0      	; 0x5fc <main+0x26>
 5fc:	00 00       	nop
 5fe:	b6 d0       	rcall	.+364    	; 0x76c <initMP3>
	_delay_ms(1000);
	initMP3();
 600:	2f ef       	ldi	r18, 0xFF	; 255
 602:	83 ed       	ldi	r24, 0xD3	; 211
 604:	90 e3       	ldi	r25, 0x30	; 48
 606:	21 50       	subi	r18, 0x01	; 1
 608:	80 40       	sbci	r24, 0x00	; 0
 60a:	90 40       	sbci	r25, 0x00	; 0
 60c:	e1 f7       	brne	.-8      	; 0x606 <main+0x30>
 60e:	00 c0       	rjmp	.+0      	; 0x610 <main+0x3a>
 610:	00 00       	nop
 612:	ff cf       	rjmp	.-2      	; 0x612 <main+0x3c>

00000614 <setSpeed>:
	
}

void setSpeed(int speed)
{
	OCR5A = (speed*(1024/100));
 614:	28 2f       	mov	r18, r24
 616:	39 2f       	mov	r19, r25
 618:	22 0f       	add	r18, r18
 61a:	33 1f       	adc	r19, r19
 61c:	a9 01       	movw	r20, r18
 61e:	44 0f       	add	r20, r20
 620:	55 1f       	adc	r21, r21
 622:	44 0f       	add	r20, r20
 624:	55 1f       	adc	r21, r21
 626:	24 0f       	add	r18, r20
 628:	35 1f       	adc	r19, r21
 62a:	30 93 29 01 	sts	0x0129, r19	; 0x800129 <__TEXT_REGION_LENGTH__+0x700129>
 62e:	20 93 28 01 	sts	0x0128, r18	; 0x800128 <__TEXT_REGION_LENGTH__+0x700128>
	currentSpeed = speed;
 632:	80 93 00 02 	sts	0x0200, r24	; 0x800200 <__data_start>
 636:	08 95       	ret

00000638 <stop>:
 638:	2f ef       	ldi	r18, 0xFF	; 255
 63a:	87 e8       	ldi	r24, 0x87	; 135
 63c:	93 e1       	ldi	r25, 0x13	; 19
 63e:	21 50       	subi	r18, 0x01	; 1
 640:	80 40       	sbci	r24, 0x00	; 0
 642:	90 40       	sbci	r25, 0x00	; 0
 644:	e1 f7       	brne	.-8      	; 0x63e <stop+0x6>
 646:	00 c0       	rjmp	.+0      	; 0x648 <stop+0x10>
 648:	00 00       	nop
}

void stop()
{
	_delay_ms(400);
	setSpeed(0);
 64a:	80 e0       	ldi	r24, 0x00	; 0
 64c:	90 e0       	ldi	r25, 0x00	; 0
 64e:	e2 df       	rcall	.-60     	; 0x614 <setSpeed>
	brake();
 650:	05 de       	rcall	.-1014   	; 0x25c <brake>
 652:	2f ef       	ldi	r18, 0xFF	; 255
 654:	89 e6       	ldi	r24, 0x69	; 105
 656:	98 e1       	ldi	r25, 0x18	; 24
 658:	21 50       	subi	r18, 0x01	; 1
 65a:	80 40       	sbci	r24, 0x00	; 0
 65c:	90 40       	sbci	r25, 0x00	; 0
 65e:	e1 f7       	brne	.-8      	; 0x658 <stop+0x20>
 660:	00 c0       	rjmp	.+0      	; 0x662 <stop+0x2a>
 662:	00 00       	nop
	_delay_ms(500);
	turnOff();
 664:	ff cd       	rjmp	.-1026   	; 0x264 <turnOff>
 666:	08 95       	ret

00000668 <setDirection>:
 668:	81 11       	cpse	r24, r1
	currentSpeed = speed;
}

void setDirection(unsigned char dir)
{
	if(dir == 0)
 66a:	06 c0       	rjmp	.+12     	; 0x678 <setDirection+0x10>
	{
		PORTL &= 0b01111111;
 66c:	eb e0       	ldi	r30, 0x0B	; 11
 66e:	f1 e0       	ldi	r31, 0x01	; 1
 670:	80 81       	ld	r24, Z
 672:	8f 77       	andi	r24, 0x7F	; 127
 674:	80 83       	st	Z, r24
 676:	08 95       	ret
	}
	else if( dir == 1)
 678:	81 30       	cpi	r24, 0x01	; 1
 67a:	29 f4       	brne	.+10     	; 0x686 <setDirection+0x1e>
	{
		PORTL |= 0b10000000;
 67c:	eb e0       	ldi	r30, 0x0B	; 11
 67e:	f1 e0       	ldi	r31, 0x01	; 1
 680:	80 81       	ld	r24, Z
 682:	80 68       	ori	r24, 0x80	; 128
 684:	80 83       	st	Z, r24
 686:	08 95       	ret

00000688 <initMotor>:
#include <util/delay.h>
unsigned char currentSpeed = 30;

void initMotor()
{
	DDRL =	 0b10001000;
 688:	88 e8       	ldi	r24, 0x88	; 136
 68a:	80 93 0a 01 	sts	0x010A, r24	; 0x80010a <__TEXT_REGION_LENGTH__+0x70010a>
	TCCR5A = 0b10000011;
 68e:	83 e8       	ldi	r24, 0x83	; 131
 690:	80 93 20 01 	sts	0x0120, r24	; 0x800120 <__TEXT_REGION_LENGTH__+0x700120>
	TCCR5B = 0b00000011;
 694:	83 e0       	ldi	r24, 0x03	; 3
 696:	80 93 21 01 	sts	0x0121, r24	; 0x800121 <__TEXT_REGION_LENGTH__+0x700121>
	setSpeed(0);
 69a:	80 e0       	ldi	r24, 0x00	; 0
 69c:	90 e0       	ldi	r25, 0x00	; 0
 69e:	ba df       	rcall	.-140    	; 0x614 <setSpeed>
	setDirection(1);
 6a0:	81 e0       	ldi	r24, 0x01	; 1
 6a2:	e2 df       	rcall	.-60     	; 0x668 <setDirection>
	currentSpeed = 50;
 6a4:	82 e3       	ldi	r24, 0x32	; 50
 6a6:	80 93 00 02 	sts	0x0200, r24	; 0x800200 <__data_start>
 6aa:	08 95       	ret

000006ac <speedUp>:
	{
		PORTL |= 0b10000000;
	}
}
void speedUp(unsigned char delay, unsigned char speedTarget)
{
 6ac:	ef 92       	push	r14
 6ae:	ff 92       	push	r15
 6b0:	0f 93       	push	r16
 6b2:	1f 93       	push	r17
 6b4:	cf 93       	push	r28
 6b6:	df 93       	push	r29
	int i ,p;
	for(i=currentSpeed; i < speedTarget; i++)
 6b8:	00 91 00 02 	lds	r16, 0x0200	; 0x800200 <__data_start>
 6bc:	10 e0       	ldi	r17, 0x00	; 0
 6be:	e6 2e       	mov	r14, r22
 6c0:	f1 2c       	mov	r15, r1
 6c2:	0e 15       	cp	r16, r14
 6c4:	1f 05       	cpc	r17, r15
 6c6:	c4 f4       	brge	.+48     	; 0x6f8 <speedUp+0x4c>
	{
		setSpeed(i);
		for (p = 0; p < delay; p++)
 6c8:	c8 2f       	mov	r28, r24
 6ca:	d0 e0       	ldi	r29, 0x00	; 0
void speedUp(unsigned char delay, unsigned char speedTarget)
{
	int i ,p;
	for(i=currentSpeed; i < speedTarget; i++)
	{
		setSpeed(i);
 6cc:	c8 01       	movw	r24, r16
 6ce:	a2 df       	rcall	.-188    	; 0x614 <setSpeed>
		for (p = 0; p < delay; p++)
 6d0:	1c 16       	cp	r1, r28
 6d2:	1d 06       	cpc	r1, r29
 6d4:	64 f4       	brge	.+24     	; 0x6ee <speedUp+0x42>
 6d6:	80 e0       	ldi	r24, 0x00	; 0
 6d8:	90 e0       	ldi	r25, 0x00	; 0
 6da:	ef e9       	ldi	r30, 0x9F	; 159
 6dc:	ff e0       	ldi	r31, 0x0F	; 15
 6de:	31 97       	sbiw	r30, 0x01	; 1
 6e0:	f1 f7       	brne	.-4      	; 0x6de <speedUp+0x32>
 6e2:	00 c0       	rjmp	.+0      	; 0x6e4 <speedUp+0x38>
 6e4:	00 00       	nop
 6e6:	01 96       	adiw	r24, 0x01	; 1
 6e8:	8c 17       	cp	r24, r28
 6ea:	9d 07       	cpc	r25, r29
 6ec:	b1 f7       	brne	.-20     	; 0x6da <speedUp+0x2e>
	}
}
void speedUp(unsigned char delay, unsigned char speedTarget)
{
	int i ,p;
	for(i=currentSpeed; i < speedTarget; i++)
 6ee:	0f 5f       	subi	r16, 0xFF	; 255
 6f0:	1f 4f       	sbci	r17, 0xFF	; 255
 6f2:	0e 15       	cp	r16, r14
 6f4:	1f 05       	cpc	r17, r15
 6f6:	54 f3       	brlt	.-44     	; 0x6cc <speedUp+0x20>
		for (p = 0; p < delay; p++)
		{
			_delay_ms(1);
		}
	}
}
 6f8:	df 91       	pop	r29
 6fa:	cf 91       	pop	r28
 6fc:	1f 91       	pop	r17
 6fe:	0f 91       	pop	r16
 700:	ff 90       	pop	r15
 702:	ef 90       	pop	r14
 704:	08 95       	ret

00000706 <start>:
	currentSpeed = 50;
}

void start()
{
	turnOn();
 706:	a3 dd       	rcall	.-1210   	; 0x24e <turnOn>
	speedUp(5, 100);
 708:	64 e6       	ldi	r22, 0x64	; 100
 70a:	85 e0       	ldi	r24, 0x05	; 5
 70c:	cf cf       	rjmp	.-98     	; 0x6ac <speedUp>
 70e:	08 95       	ret

00000710 <slowDown>:
			_delay_ms(1);
		}
	}
}
void slowDown(unsigned char delay, unsigned char speedTarget)
{
 710:	ef 92       	push	r14
 712:	ff 92       	push	r15
 714:	0f 93       	push	r16
 716:	1f 93       	push	r17
 718:	cf 93       	push	r28
 71a:	df 93       	push	r29
 71c:	c8 2f       	mov	r28, r24
 71e:	e6 2e       	mov	r14, r22
	int i,p;
	brake();
 720:	9d dd       	rcall	.-1222   	; 0x25c <brake>
	for(i = currentSpeed; i > speedTarget; i--)
 722:	00 91 00 02 	lds	r16, 0x0200	; 0x800200 <__data_start>
 726:	10 e0       	ldi	r17, 0x00	; 0
 728:	f1 2c       	mov	r15, r1
 72a:	e0 16       	cp	r14, r16
 72c:	f1 06       	cpc	r15, r17
 72e:	bc f4       	brge	.+46     	; 0x75e <slowDown+0x4e>
	{
		setSpeed(i);
		for (p = 0; p < delay; p++)
 730:	d0 e0       	ldi	r29, 0x00	; 0
{
	int i,p;
	brake();
	for(i = currentSpeed; i > speedTarget; i--)
	{
		setSpeed(i);
 732:	c8 01       	movw	r24, r16
 734:	6f df       	rcall	.-290    	; 0x614 <setSpeed>
		for (p = 0; p < delay; p++)
 736:	1c 16       	cp	r1, r28
 738:	1d 06       	cpc	r1, r29
 73a:	64 f4       	brge	.+24     	; 0x754 <slowDown+0x44>
 73c:	80 e0       	ldi	r24, 0x00	; 0
 73e:	90 e0       	ldi	r25, 0x00	; 0
 740:	ef e9       	ldi	r30, 0x9F	; 159
 742:	ff e0       	ldi	r31, 0x0F	; 15
 744:	31 97       	sbiw	r30, 0x01	; 1
 746:	f1 f7       	brne	.-4      	; 0x744 <slowDown+0x34>
 748:	00 c0       	rjmp	.+0      	; 0x74a <slowDown+0x3a>
 74a:	00 00       	nop
 74c:	01 96       	adiw	r24, 0x01	; 1
 74e:	8c 17       	cp	r24, r28
 750:	9d 07       	cpc	r25, r29
 752:	b1 f7       	brne	.-20     	; 0x740 <slowDown+0x30>
}
void slowDown(unsigned char delay, unsigned char speedTarget)
{
	int i,p;
	brake();
	for(i = currentSpeed; i > speedTarget; i--)
 754:	01 50       	subi	r16, 0x01	; 1
 756:	11 09       	sbc	r17, r1
 758:	e0 16       	cp	r14, r16
 75a:	f1 06       	cpc	r15, r17
 75c:	54 f3       	brlt	.-44     	; 0x732 <slowDown+0x22>
				_delay_ms(1);
			}
	}
	
	
}
 75e:	df 91       	pop	r29
 760:	cf 91       	pop	r28
 762:	1f 91       	pop	r17
 764:	0f 91       	pop	r16
 766:	ff 90       	pop	r15
 768:	ef 90       	pop	r14
 76a:	08 95       	ret

0000076c <initMP3>:
#include <util/delay.h>
#include "uart.h"

void initMP3()
{
	DDRJ |= 0b00000011;
 76c:	e4 e0       	ldi	r30, 0x04	; 4
 76e:	f1 e0       	ldi	r31, 0x01	; 1
 770:	80 81       	ld	r24, Z
 772:	83 60       	ori	r24, 0x03	; 3
 774:	80 83       	st	Z, r24
	SendChar(0x7E);
 776:	8e e7       	ldi	r24, 0x7E	; 126
 778:	83 d0       	rcall	.+262    	; 0x880 <SendChar>
	SendChar(0x06);
 77a:	86 e0       	ldi	r24, 0x06	; 6
 77c:	81 d0       	rcall	.+258    	; 0x880 <SendChar>
	SendChar(0x00);
 77e:	80 e0       	ldi	r24, 0x00	; 0
 780:	7f d0       	rcall	.+254    	; 0x880 <SendChar>
	SendChar(0x00);
 782:	80 e0       	ldi	r24, 0x00	; 0
 784:	7d d0       	rcall	.+250    	; 0x880 <SendChar>
	SendChar(0x1E);
 786:	8e e1       	ldi	r24, 0x1E	; 30
 788:	7b d0       	rcall	.+246    	; 0x880 <SendChar>
	SendChar(0xFF);
 78a:	8f ef       	ldi	r24, 0xFF	; 255
 78c:	79 d0       	rcall	.+242    	; 0x880 <SendChar>
	SendChar(0xDC);
 78e:	8c ed       	ldi	r24, 0xDC	; 220
 790:	77 d0       	rcall	.+238    	; 0x880 <SendChar>
 792:	8f ee       	ldi	r24, 0xEF	; 239
	SendChar(0xEF);
 794:	75 d0       	rcall	.+234    	; 0x880 <SendChar>
 796:	2f ef       	ldi	r18, 0xFF	; 255
 798:	83 ed       	ldi	r24, 0xD3	; 211
 79a:	90 e3       	ldi	r25, 0x30	; 48
 79c:	21 50       	subi	r18, 0x01	; 1
 79e:	80 40       	sbci	r24, 0x00	; 0
 7a0:	90 40       	sbci	r25, 0x00	; 0
 7a2:	e1 f7       	brne	.-8      	; 0x79c <initMP3+0x30>
 7a4:	00 c0       	rjmp	.+0      	; 0x7a6 <initMP3+0x3a>
	_delay_ms(1000);
	SendChar(0x7E);
 7a6:	00 00       	nop
 7a8:	8e e7       	ldi	r24, 0x7E	; 126
	SendChar(0x09); 
 7aa:	6a d0       	rcall	.+212    	; 0x880 <SendChar>
 7ac:	89 e0       	ldi	r24, 0x09	; 9
	SendChar(0x00); 
 7ae:	68 d0       	rcall	.+208    	; 0x880 <SendChar>
 7b0:	80 e0       	ldi	r24, 0x00	; 0
	SendChar(0x00); 
 7b2:	66 d0       	rcall	.+204    	; 0x880 <SendChar>
 7b4:	80 e0       	ldi	r24, 0x00	; 0
 7b6:	64 d0       	rcall	.+200    	; 0x880 <SendChar>
	SendChar(0x02); 
 7b8:	82 e0       	ldi	r24, 0x02	; 2
 7ba:	62 d0       	rcall	.+196    	; 0x880 <SendChar>
 7bc:	8f ef       	ldi	r24, 0xFF	; 255
	SendChar(0xFF); 
 7be:	60 d0       	rcall	.+192    	; 0x880 <SendChar>
 7c0:	85 ef       	ldi	r24, 0xF5	; 245
 7c2:	5e d0       	rcall	.+188    	; 0x880 <SendChar>
	SendChar(0xF5);
 7c4:	8f ee       	ldi	r24, 0xEF	; 239
 7c6:	5c c0       	rjmp	.+184    	; 0x880 <SendChar>
 7c8:	08 95       	ret

000007ca <playSound>:
	SendChar(0xEF); 
 7ca:	cf 93       	push	r28
 7cc:	c8 2f       	mov	r28, r24
 7ce:	8e e7       	ldi	r24, 0x7E	; 126
 7d0:	57 d0       	rcall	.+174    	; 0x880 <SendChar>
	//	Vi bruger ikke sange nok til at de 8 MSB ændres. Derfor bruges blot 0xFF for de 8 LSB
	
	unsigned char x = 0xFF - (0x03 + 0x00 + 0x00 + soundChoice) + 1;
	
	SendChar(0x7E);
	SendChar(0x03);			//CMD
 7d2:	83 e0       	ldi	r24, 0x03	; 3
 7d4:	55 d0       	rcall	.+170    	; 0x880 <SendChar>
	SendChar(0x00);			//FeedBack
 7d6:	80 e0       	ldi	r24, 0x00	; 0
 7d8:	53 d0       	rcall	.+166    	; 0x880 <SendChar>
	SendChar(0x00);			//para1
 7da:	80 e0       	ldi	r24, 0x00	; 0
 7dc:	51 d0       	rcall	.+162    	; 0x880 <SendChar>
	SendChar(soundChoice);	//para2
 7de:	8c 2f       	mov	r24, r28
 7e0:	4f d0       	rcall	.+158    	; 0x880 <SendChar>
	SendChar(0xFF);
 7e2:	8f ef       	ldi	r24, 0xFF	; 255
 7e4:	4d d0       	rcall	.+154    	; 0x880 <SendChar>
	SendChar(x);			//8 LSB af Checksum (x)
 7e6:	8d ef       	ldi	r24, 0xFD	; 253
 7e8:	8c 1b       	sub	r24, r28
 7ea:	4a d0       	rcall	.+148    	; 0x880 <SendChar>
 7ec:	8f ee       	ldi	r24, 0xEF	; 239
	SendChar(0xEF);
 7ee:	48 d0       	rcall	.+144    	; 0x880 <SendChar>
 7f0:	cf 91       	pop	r28
 7f2:	08 95       	ret

000007f4 <initSwitchPort>:
#include "Switch.h"


void initSwitchPort()
{
	DDRD &= 0b11111100; //Sætter port d 0 - 1 som indgange 
 7f4:	8a b1       	in	r24, 0x0a	; 10
 7f6:	8c 7f       	andi	r24, 0xFC	; 252
 7f8:	8a b9       	out	0x0a, r24	; 10
	//DDRE &= 0b11101111; // Sætter port e 4 som indgang
	EICRA = 0x0F;
 7fa:	8f e0       	ldi	r24, 0x0F	; 15
 7fc:	80 93 69 00 	sts	0x0069, r24	; 0x800069 <__TEXT_REGION_LENGTH__+0x700069>
	EICRB = 0b00000000;
 800:	10 92 6a 00 	sts	0x006A, r1	; 0x80006a <__TEXT_REGION_LENGTH__+0x70006a>
	EIMSK = 0b00000011;
 804:	83 e0       	ldi	r24, 0x03	; 3
 806:	8d bb       	out	0x1d, r24	; 29
 808:	08 95       	ret

0000080a <InitUART>:
{
	while ((UCSR3A & (1<<7)) == 0)
	{}
	char x = UDR3;
	return x;
}
 80a:	0f 93       	push	r16
 80c:	1f 93       	push	r17
 80e:	8b 01       	movw	r16, r22
 810:	9c 01       	movw	r18, r24
 812:	0c 52       	subi	r16, 0x2C	; 44
 814:	11 40       	sbci	r17, 0x01	; 1
 816:	21 09       	sbc	r18, r1
 818:	31 09       	sbc	r19, r1
 81a:	05 3d       	cpi	r16, 0xD5	; 213
 81c:	10 4c       	sbci	r17, 0xC0	; 192
 81e:	21 40       	sbci	r18, 0x01	; 1
 820:	31 05       	cpc	r19, r1
 822:	18 f4       	brcc	.+6      	; 0x82a <InitUART+0x20>
 824:	45 50       	subi	r20, 0x05	; 5
 826:	44 30       	cpi	r20, 0x04	; 4
 828:	18 f0       	brcs	.+6      	; 0x830 <InitUART+0x26>
 82a:	81 e0       	ldi	r24, 0x01	; 1
 82c:	90 e0       	ldi	r25, 0x00	; 0
 82e:	52 d0       	rcall	.+164    	; 0x8d4 <_exit>
 830:	28 e1       	ldi	r18, 0x18	; 24
 832:	20 93 31 01 	sts	0x0131, r18	; 0x800131 <__TEXT_REGION_LENGTH__+0x700131>
 836:	26 e0       	ldi	r18, 0x06	; 6
 838:	20 93 32 01 	sts	0x0132, r18	; 0x800132 <__TEXT_REGION_LENGTH__+0x700132>
 83c:	dc 01       	movw	r26, r24
 83e:	cb 01       	movw	r24, r22
 840:	88 0f       	add	r24, r24
 842:	99 1f       	adc	r25, r25
 844:	aa 1f       	adc	r26, r26
 846:	bb 1f       	adc	r27, r27
 848:	88 0f       	add	r24, r24
 84a:	99 1f       	adc	r25, r25
 84c:	aa 1f       	adc	r26, r26
 84e:	bb 1f       	adc	r27, r27
 850:	9c 01       	movw	r18, r24
 852:	ad 01       	movw	r20, r26
 854:	22 0f       	add	r18, r18
 856:	33 1f       	adc	r19, r19
 858:	44 1f       	adc	r20, r20
 85a:	55 1f       	adc	r21, r21
 85c:	22 0f       	add	r18, r18
 85e:	33 1f       	adc	r19, r19
 860:	44 1f       	adc	r20, r20
 862:	55 1f       	adc	r21, r21
 864:	60 e0       	ldi	r22, 0x00	; 0
 866:	74 e2       	ldi	r23, 0x24	; 36
 868:	84 ef       	ldi	r24, 0xF4	; 244
 86a:	90 e0       	ldi	r25, 0x00	; 0
 86c:	11 d0       	rcall	.+34     	; 0x890 <__udivmodsi4>
 86e:	21 50       	subi	r18, 0x01	; 1
 870:	31 09       	sbc	r19, r1
 872:	30 93 35 01 	sts	0x0135, r19	; 0x800135 <__TEXT_REGION_LENGTH__+0x700135>
 876:	20 93 34 01 	sts	0x0134, r18	; 0x800134 <__TEXT_REGION_LENGTH__+0x700134>
 87a:	1f 91       	pop	r17
 87c:	0f 91       	pop	r16
 87e:	08 95       	ret

00000880 <SendChar>:

void SendChar(char Tegn)
{
	while ((UCSR3A & (1<<5)) == 0)
 880:	e0 e3       	ldi	r30, 0x30	; 48
 882:	f1 e0       	ldi	r31, 0x01	; 1
 884:	90 81       	ld	r25, Z
 886:	95 ff       	sbrs	r25, 5
 888:	fd cf       	rjmp	.-6      	; 0x884 <SendChar+0x4>
	{}
	UDR3 = Tegn;
 88a:	80 93 36 01 	sts	0x0136, r24	; 0x800136 <__TEXT_REGION_LENGTH__+0x700136>
 88e:	08 95       	ret

00000890 <__udivmodsi4>:
 890:	a1 e2       	ldi	r26, 0x21	; 33
 892:	1a 2e       	mov	r1, r26
 894:	aa 1b       	sub	r26, r26
 896:	bb 1b       	sub	r27, r27
 898:	fd 01       	movw	r30, r26
 89a:	0d c0       	rjmp	.+26     	; 0x8b6 <__udivmodsi4_ep>

0000089c <__udivmodsi4_loop>:
 89c:	aa 1f       	adc	r26, r26
 89e:	bb 1f       	adc	r27, r27
 8a0:	ee 1f       	adc	r30, r30
 8a2:	ff 1f       	adc	r31, r31
 8a4:	a2 17       	cp	r26, r18
 8a6:	b3 07       	cpc	r27, r19
 8a8:	e4 07       	cpc	r30, r20
 8aa:	f5 07       	cpc	r31, r21
 8ac:	20 f0       	brcs	.+8      	; 0x8b6 <__udivmodsi4_ep>
 8ae:	a2 1b       	sub	r26, r18
 8b0:	b3 0b       	sbc	r27, r19
 8b2:	e4 0b       	sbc	r30, r20
 8b4:	f5 0b       	sbc	r31, r21

000008b6 <__udivmodsi4_ep>:
 8b6:	66 1f       	adc	r22, r22
 8b8:	77 1f       	adc	r23, r23
 8ba:	88 1f       	adc	r24, r24
 8bc:	99 1f       	adc	r25, r25
 8be:	1a 94       	dec	r1
 8c0:	69 f7       	brne	.-38     	; 0x89c <__udivmodsi4_loop>
 8c2:	60 95       	com	r22
 8c4:	70 95       	com	r23
 8c6:	80 95       	com	r24
 8c8:	90 95       	com	r25
 8ca:	9b 01       	movw	r18, r22
 8cc:	ac 01       	movw	r20, r24
 8ce:	bd 01       	movw	r22, r26
 8d0:	cf 01       	movw	r24, r30
 8d2:	08 95       	ret

000008d4 <_exit>:
 8d4:	f8 94       	cli

000008d6 <__stop_program>:
 8d6:	ff cf       	rjmp	.-2      	; 0x8d6 <__stop_program>
